target datalayout = "e-m:e-p270:32:32-p271:32:32-p272:64:64-i64:64-i128:128-f80:128-n8:16:32:64-S128"
target triple = "x86_64-pc-linux-gnu"

%struct.ssl_excert_st = type { i32, ptr, i32, ptr, ptr, ptr, ptr, ptr, i32, ptr, ptr }

@.str.26 = private unnamed_addr constant [27 x i8] c"../openssl/apps/lib/s_cb.c\00", align 1

; Function Attrs: nounwind uwtable
define void @ssl_excert_free(ptr noundef %0) #0 {
  %2 = alloca ptr, align 8
  %3 = alloca ptr, align 8
  %4 = alloca i32, align 4
  store ptr %0, ptr %2, align 8, !tbaa !68
  call void @llvm.lifetime.start.p0(i64 8, ptr %3) #10
  %5 = load ptr, ptr %2, align 8, !tbaa !68
  %6 = icmp eq ptr %5, null
  br i1 %6, label %7, label %8

7:                                                ; preds = %1
  store i32 1, ptr %4, align 4
  br label %28

8:                                                ; preds = %1
  br label %9

9:                                                ; preds = %12, %8
  %10 = load ptr, ptr %2, align 8, !tbaa !68
  %11 = icmp ne ptr %10, null
  br i1 %11, label %12, label %27

12:                                               ; preds = %9
  %13 = load ptr, ptr %2, align 8, !tbaa !68
  %14 = getelementptr inbounds nuw %struct.ssl_excert_st, ptr %13, i32 0, i32 5
  %15 = load ptr, ptr %14, align 8, !tbaa !73
  call void @X509_free(ptr noundef %15)
  %16 = load ptr, ptr %2, align 8, !tbaa !68
  %17 = getelementptr inbounds nuw %struct.ssl_excert_st, ptr %16, i32 0, i32 6
  %18 = load ptr, ptr %17, align 8, !tbaa !74
  call void @EVP_PKEY_free(ptr noundef %18)
  %19 = load ptr, ptr %2, align 8, !tbaa !68
  %20 = getelementptr inbounds nuw %struct.ssl_excert_st, ptr %19, i32 0, i32 7
  %21 = load ptr, ptr %20, align 8, !tbaa !75
  call void @OSSL_STACK_OF_X509_free(ptr noundef %21)
  %22 = load ptr, ptr %2, align 8, !tbaa !68
  store ptr %22, ptr %3, align 8, !tbaa !68
  %23 = load ptr, ptr %2, align 8, !tbaa !68
  %24 = getelementptr inbounds nuw %struct.ssl_excert_st, ptr %23, i32 0, i32 9
  %25 = load ptr, ptr %24, align 8, !tbaa !70
  store ptr %25, ptr %2, align 8, !tbaa !68
  %26 = load ptr, ptr %3, align 8, !tbaa !68
  call void @CRYPTO_free(ptr noundef %26, ptr noundef @.str.26, i32 noundef 1092)
  br label %9, !llvm.loop !79

27:                                               ; preds = %9
  store i32 0, ptr %4, align 4
  br label %28

28:                                               ; preds = %27, %7
  call void @llvm.lifetime.end.p0(i64 8, ptr %3) #10
  %29 = load i32, ptr %4, align 4
  switch i32 %29, label %31 [
    i32 0, label %30
    i32 1, label %30
  ]

30:                                               ; preds = %28, %28
  ret void

31:                                               ; preds = %28
  unreachable
}