; Function Attrs: nounwind uwtable
define void @ssl_excert_free(ptr noundef %0) local_unnamed_addr #0 {
  %2 = icmp eq ptr %0, null
  br i1 %2, label %.loopexit, label %.preheader

.preheader:                                       ; preds = %1, %.preheader
  %.09 = phi ptr [ %10, %.preheader ], [ %0, %1 ]
  %3 = getelementptr inbounds nuw i8, ptr %.09, i64 40
  %4 = load ptr, ptr %3, align 8, !tbaa !52
  tail call void @X509_free(ptr noundef %4) #6
  %5 = getelementptr inbounds nuw i8, ptr %.09, i64 48
  %6 = load ptr, ptr %5, align 8, !tbaa !53
  tail call void @EVP_PKEY_free(ptr noundef %6) #6
  %7 = getelementptr inbounds nuw i8, ptr %.09, i64 56
  %8 = load ptr, ptr %7, align 8, !tbaa !54
  tail call void @OSSL_STACK_OF_X509_free(ptr noundef %8) #6
  %9 = getelementptr inbounds nuw i8, ptr %.09, i64 72
  %10 = load ptr, ptr %9, align 8, !tbaa !46
  tail call void @CRYPTO_free(ptr noundef nonnull %.09, ptr noundef nonnull @.str.26, i32 noundef 1092) #6
  %.not = icmp eq ptr %10, null
  br i1 %.not, label %.loopexit, label %.preheader, !llvm.loop !59

.loopexit:                                        ; preds = %.preheader, %1
  ret void
}